Certificate:
    Data:
        Version: 3 (0x2)
        Serial Number:
            bb:7b:16:71:2c:f0:7b:1c
        Signature Algorithm: sha1WithRSAEncryption
        Issuer: C=DE, ST=Bavaria, O=Fraunhofer Gesellschaft, OU=Fraunhofer-Allianz Vision, CN=Vision CA/emailAddress=vision@fraunhofer.de
        Validity
            Not Before: Apr 21 15:12:01 2010 GMT
            Not After : Apr 18 15:12:01 2020 GMT
        Subject: C=DE, ST=Bavaria, O=Fraunhofer Gesellschaft, OU=Fraunhofer-Allianz Vision, CN=Vision CA/emailAddress=vision@fraunhofer.de
        Subject Public Key Info:
            Public Key Algorithm: rsaEncryption
            RSA Public Key: (2048 bit)
                Modulus (2048 bit):
                    00:ca:d9:11:38:77:26:ee:8e:81:c6:5d:a0:cc:48:
                    35:7d:b5:3c:c0:5e:37:c4:41:cd:a0:91:54:d6:34:
                    8a:60:d6:3a:41:8f:d1:d5:ac:ab:30:7b:b8:f1:93:
                    5c:91:89:fd:c9:b8:c0:27:69:33:e9:99:00:9f:00:
                    18:e4:88:4e:ab:72:99:e0:33:fa:4e:ff:f3:9d:76:
                    c2:12:25:c8:6a:99:67:be:c6:12:f2:90:04:7e:bb:
                    e9:76:60:18:48:e9:be:31:4b:68:ec:6b:09:48:fd:
                    d2:9a:b7:27:e0:94:33:f0:f1:6c:3e:e3:ee:89:52:
                    e7:81:ed:fc:d6:54:7b:5d:10:c0:2f:89:0e:04:8c:
                    f6:a9:3d:27:dc:7b:49:28:ad:03:28:96:d6:79:6d:
                    f2:ea:3f:dc:86:cb:33:33:88:f0:51:05:c3:3e:b3:
                    09:ca:6f:52:93:e9:fa:5b:f0:12:5b:7e:ea:ea:06:
                    08:66:de:58:a7:fd:0a:6f:db:00:e4:7b:7d:6f:77:
                    89:39:a7:fc:ef:27:35:97:53:cf:77:74:18:fc:67:
                    90:16:43:e3:eb:12:ae:00:b0:09:88:d7:ca:dc:17:
                    44:07:ae:b8:d5:5a:0e:f6:f9:db:70:be:06:7c:49:
                    24:d5:f7:3e:8b:49:b2:e3:b3:92:54:23:14:55:20:
                    b9:09
                Exponent: 65537 (0x10001)
        X509v3 extensions:
            X509v3 Subject Key Identifier: 
                44:18:0B:F6:99:8B:85:09:BA:8B:5C:67:EA:EC:8E:3A:DC:A5:E7:82
            X509v3 Authority Key Identifier: 
                keyid:44:18:0B:F6:99:8B:85:09:BA:8B:5C:67:EA:EC:8E:3A:DC:A5:E7:82
                DirName:/C=DE/ST=Bavaria/O=Fraunhofer Gesellschaft/OU=Fraunhofer-Allianz Vision/CN=Vision CA/emailAddress=vision@fraunhofer.de
                serial:BB:7B:16:71:2C:F0:7B:1C

            X509v3 Basic Constraints: 
                CA:TRUE
            X509v3 Key Usage: 
                Certificate Sign, CRL Sign
    Signature Algorithm: sha1WithRSAEncryption
        91:41:7e:19:45:ec:6e:b6:29:a1:28:02:12:cc:7c:13:c4:f5:
        6b:8e:66:34:4b:8a:43:e3:0a:b2:aa:cb:9d:45:e3:d9:32:aa:
        3f:19:a5:ee:22:6b:08:eb:e9:02:d6:58:f7:19:2a:53:d7:b5:
        e7:f5:18:30:39:dc:7b:cd:b7:60:88:80:10:77:5d:bb:ca:49:
        1c:ba:16:35:5e:1b:c0:38:f5:8a:2d:cd:91:6b:1b:32:9e:ec:
        6a:75:15:6a:a1:87:c4:8f:63:27:9d:f8:9f:0d:8d:60:e0:8e:
        42:55:6a:e0:a5:c0:e0:1e:68:ae:5b:53:2b:28:5f:be:5d:6a:
        0d:df:86:9a:c4:7b:40:53:42:f9:31:0c:b4:b9:22:47:14:6d:
        4e:2d:03:8b:8c:db:e8:14:8e:03:4e:58:32:e1:03:a1:a4:79:
        b9:dc:fc:74:ab:a6:6e:89:b8:6f:10:64:bf:ff:24:63:be:ea:
        7c:6b:54:e5:e6:70:20:96:fd:25:a2:3b:41:8f:72:b1:66:5e:
        77:f2:96:3a:7e:6f:2a:65:9c:5b:88:1b:ad:47:e9:43:0f:7e:
        69:c9:3e:7b:33:5c:e4:f7:37:4b:11:ab:d5:63:c8:42:21:97:
        0f:cf:02:5e:5e:e6:88:b4:f6:f5:19:bf:8b:26:f6:8c:9b:60:
        3e:d9:0b:e7
-----BEGIN CERTIFICATE-----
MIIE1zCCA7+gAwIBAgIJALt7FnEs8HscMA0GCSqGSIb3DQEBBQUAMIGeMQswCQYD
VQQGEwJERTEQMA4GA1UECBMHQmF2YXJpYTEgMB4GA1UEChMXRnJhdW5ob2ZlciBH
ZXNlbGxzY2hhZnQxIjAgBgNVBAsTGUZyYXVuaG9mZXItQWxsaWFueiBWaXNpb24x
EjAQBgNVBAMTCVZpc2lvbiBDQTEjMCEGCSqGSIb3DQEJARYUdmlzaW9uQGZyYXVu
aG9mZXIuZGUwHhcNMTAwNDIxMTUxMjAxWhcNMjAwNDE4MTUxMjAxWjCBnjELMAkG
A1UEBhMCREUxEDAOBgNVBAgTB0JhdmFyaWExIDAeBgNVBAoTF0ZyYXVuaG9mZXIg
R2VzZWxsc2NoYWZ0MSIwIAYDVQQLExlGcmF1bmhvZmVyLUFsbGlhbnogVmlzaW9u
MRIwEAYDVQQDEwlWaXNpb24gQ0ExIzAhBgkqhkiG9w0BCQEWFHZpc2lvbkBmcmF1
bmhvZmVyLmRlMIIBIjANBgkqhkiG9w0BAQEFAAOCAQ8AMIIBCgKCAQEAytkROHcm
7o6Bxl2gzEg1fbU8wF43xEHNoJFU1jSKYNY6QY/R1ayrMHu48ZNckYn9ybjAJ2kz
6ZkAnwAY5IhOq3KZ4DP6Tv/znXbCEiXIaplnvsYS8pAEfrvpdmAYSOm+MUto7GsJ
SP3Smrcn4JQz8PFsPuPuiVLnge381lR7XRDAL4kOBIz2qT0n3HtJKK0DKJbWeW3y
6j/chsszM4jwUQXDPrMJym9Sk+n6W/ASW37q6gYIZt5Yp/0Kb9sA5Ht9b3eJOaf8
7yc1l1PPd3QY/GeQFkPj6xKuALAJiNfK3BdEB6641VoO9vnbcL4GfEkk1fc+i0my
47OSVCMUVSC5CQIDAQABo4IBFDCCARAwHQYDVR0OBBYEFEQYC/aZi4UJuotcZ+rs
jjrcpeeCMIHTBgNVHSMEgcswgciAFEQYC/aZi4UJuotcZ+rsjjrcpeeCoYGkpIGh
MIGeMQswCQYDVQQGEwJERTEQMA4GA1UECBMHQmF2YXJpYTEgMB4GA1UEChMXRnJh
dW5ob2ZlciBHZXNlbGxzY2hhZnQxIjAgBgNVBAsTGUZyYXVuaG9mZXItQWxsaWFu
eiBWaXNpb24xEjAQBgNVBAMTCVZpc2lvbiBDQTEjMCEGCSqGSIb3DQEJARYUdmlz
aW9uQGZyYXVuaG9mZXIuZGWCCQC7exZxLPB7HDAMBgNVHRMEBTADAQH/MAsGA1Ud
DwQEAwIBBjANBgkqhkiG9w0BAQUFAAOCAQEAkUF+GUXsbrYpoSgCEsx8E8T1a45m
NEuKQ+MKsqrLnUXj2TKqPxml7iJrCOvpAtZY9xkqU9e15/UYMDnce823YIiAEHdd
u8pJHLoWNV4bwDj1ii3NkWsbMp7sanUVaqGHxI9jJ534nw2NYOCOQlVq4KXA4B5o
rltTKyhfvl1qDd+GmsR7QFNC+TEMtLkiRxRtTi0Di4zb6BSOA05YMuEDoaR5udz8
dKumbom4bxBkv/8kY77qfGtU5eZwIJb9JaI7QY9ysWZed/KWOn5vKmWcW4gbrUfp
Qw9+ack+ezNc5Pc3SxGr1WPIQiGXD88CXl7miLT29Rm/iyb2jJtgPtkL5w==
-----END CERTIFICATE-----
